; Function Attrs: mustprogress uwtable
define internal fastcc void @"_ZNO8pybind116detail15argument_loaderIJRK8StrIssueEE4callINSt7__cxx1112basic_stringIcSt11char_traitsIcESaIcEEENS0_9void_typeERZ37test_submodule_methods_and_attributesRNS_7module_EE4$_24EENSt9enable_ifIXntsr3std7is_voidIT_EE5valueESJ_E4typeEOT1_"(ptr dead_on_unwind noalias writable align 8 %0, ptr readonly %.16.val) unnamed_addr #1 align 2 personality ptr @__gxx_personality_v0 {
  %2 = alloca %"class.std::__cxx11::basic_string", align 8
  %3 = alloca %"class.std::__cxx11::basic_string", align 8
  %.not.i.i.i = icmp eq ptr %.16.val, null
  br i1 %.not.i.i.i, label %4, label %_ZN8pybind116detail7cast_opIRK8StrIssueEENS0_11type_casterINS0_14intrinsic_typeIT_E4typeEvE12cast_op_typeINSt20add_rvalue_referenceIS7_E4typeEEEOSA_.exit.i

4:                                                ; preds = %1
  %5 = tail call ptr @__cxa_allocate_exception(i64 16) #26, !noalias !2284
  invoke void @_ZN8pybind1120reference_cast_errorC2Ev(ptr noundef nonnull align 8 dereferenceable(16) %5)
          to label %6 unwind label %7, !noalias !2284

6:                                                ; preds = %4
  tail call void @__cxa_throw(ptr nonnull %5, ptr nonnull @_ZTIN8pybind1120reference_cast_errorE, ptr nonnull @_ZN8pybind1120reference_cast_errorD2Ev) #29, !noalias !2284
  unreachable

common.resume.i:                                  ; preds = %16, %7
  %common.resume.op.i = phi { ptr, i32 } [ %8, %7 ], [ %.pn.i.i, %16 ]
  resume { ptr, i32 } %common.resume.op.i

7:                                                ; preds = %4
  %8 = landingpad { ptr, i32 }
          cleanup
  tail call void @__cxa_free_exception(ptr %5) #26, !noalias !2284
  br label %common.resume.i

_ZN8pybind116detail7cast_opIRK8StrIssueEENS0_11type_casterINS0_14intrinsic_typeIT_E4typeEvE12cast_op_typeINSt20add_rvalue_referenceIS7_E4typeEEEOSA_.exit.i: ; preds = %1
  %.val.i = load i32, ptr %.16.val, align 4, !noalias !2284
  call void @llvm.lifetime.start.p0(i64 32, ptr nonnull %2), !noalias !2284
  call void @llvm.lifetime.start.p0(i64 32, ptr nonnull %3), !noalias !2284
  call void @_ZNSt7__cxx119to_stringEi(ptr dead_on_unwind nonnull writable sret(%"class.std::__cxx11::basic_string") align 8 %3, i32 noundef %.val.i) #26, !noalias !2287
  %9 = invoke noundef nonnull align 8 dereferenceable(32) ptr @_ZNSt7__cxx1112basic_stringIcSt11char_traitsIcESaIcEE6insertEmPKc(ptr noundef nonnull align 8 dereferenceable(32) %3, i64 noundef 0, ptr noundef nonnull @.str.291)
          to label %10 unwind label %12, !noalias !2287

10:                                               ; preds = %_ZN8pybind116detail7cast_opIRK8StrIssueEENS0_11type_casterINS0_14intrinsic_typeIT_E4typeEvE12cast_op_typeINSt20add_rvalue_referenceIS7_E4typeEEEOSA_.exit.i
  call void @_ZNSt7__cxx1112basic_stringIcSt11char_traitsIcESaIcEEC1EOS4_(ptr noundef nonnull align 8 dereferenceable(32) %2, ptr noundef nonnull align 8 dereferenceable(32) %9) #26, !noalias !2287
  %11 = invoke noundef nonnull align 8 dereferenceable(32) ptr @_ZNSt7__cxx1112basic_stringIcSt11char_traitsIcESaIcEE6appendEPKc(ptr noundef nonnull align 8 dereferenceable(32) %2, ptr noundef nonnull @.str.243)
          to label %"_ZNO8pybind116detail15argument_loaderIJRK8StrIssueEE9call_implINSt7__cxx1112basic_stringIcSt11char_traitsIcESaIcEEERZ37test_submodule_methods_and_attributesRNS_7module_EE4$_24JLm0EENS0_9void_typeEEET_OT0_St16integer_sequenceImJXspT1_EEEOT2_.exit" unwind label %14, !noalias !2287

12:                                               ; preds = %_ZN8pybind116detail7cast_opIRK8StrIssueEENS0_11type_casterINS0_14intrinsic_typeIT_E4typeEvE12cast_op_typeINSt20add_rvalue_referenceIS7_E4typeEEEOSA_.exit.i
  %13 = landingpad { ptr, i32 }
          cleanup
  br label %16

14:                                               ; preds = %10
  %15 = landingpad { ptr, i32 }
          cleanup
  call void @_ZNSt7__cxx1112basic_stringIcSt11char_traitsIcESaIcEED1Ev(ptr noundef nonnull align 8 dereferenceable(32) %2) #26, !noalias !2287
  br label %16

16:                                               ; preds = %14, %12
  %.pn.i.i = phi { ptr, i32 } [ %15, %14 ], [ %13, %12 ]
  call void @_ZNSt7__cxx1112basic_stringIcSt11char_traitsIcESaIcEED1Ev(ptr noundef nonnull align 8 dereferenceable(32) %3) #26, !noalias !2287
  br label %common.resume.i

"_ZNO8pybind116detail15argument_loaderIJRK8StrIssueEE9call_implINSt7__cxx1112basic_stringIcSt11char_traitsIcESaIcEEERZ37test_submodule_methods_and_attributesRNS_7module_EE4$_24JLm0EENS0_9void_typeEEET_OT0_St16integer_sequenceImJXspT1_EEEOT2_.exit": ; preds = %10
  call void @_ZNSt7__cxx1112basic_stringIcSt11char_traitsIcESaIcEEC1EOS4_(ptr noundef nonnull align 8 dereferenceable(32) %0, ptr noundef nonnull align 8 dereferenceable(32) %11) #26
  call void @_ZNSt7__cxx1112basic_stringIcSt11char_traitsIcESaIcEED1Ev(ptr noundef nonnull align 8 dereferenceable(32) %2) #26
  call void @_ZNSt7__cxx1112basic_stringIcSt11char_traitsIcESaIcEED1Ev(ptr noundef nonnull align 8 dereferenceable(32) %3) #26
  call void @llvm.lifetime.end.p0(i64 32, ptr nonnull %2), !noalias !2284
  call void @llvm.lifetime.end.p0(i64 32, ptr nonnull %3), !noalias !2284
  ret void
}